; Function Attrs: mustprogress uwtable
define hidden noundef zeroext i1 @_ZN18OpenImageIO_v2_6_08PSDInput18load_resource_1058Ej(ptr noundef nonnull align 8 dereferenceable(840) %this, i32 noundef %length) #5 align 2 personality ptr @__gxx_personality_v0 {
entry:
  %data = alloca %"class.std::__cxx11::basic_string", align 8
  %ref.tmp = alloca %"class.std::allocator.18", align 1
  %agg.tmp = alloca %"class.OpenImageIO_v2_6_0::basic_string_view", align 8
  %agg.tmp9 = alloca %"class.OpenImageIO_v2_6_0::basic_string_view", align 8
  %conv = zext i32 %length to i64
  call void @_ZNSaIcEC1Ev(ptr noundef nonnull align 1 dereferenceable(1) %ref.tmp) #28
  %call.i3 = invoke noundef ptr @_ZNSt7__cxx1112basic_stringIcSt11char_traitsIcESaIcEE13_M_local_dataEv(ptr noundef nonnull align 8 dereferenceable(32) %data)
          to label %call.i.noexc unwind label %lpad

call.i.noexc:                                     ; preds = %entry
  invoke void @_ZNSt7__cxx1112basic_stringIcSt11char_traitsIcESaIcEE12_Alloc_hiderC1EPcRKS3_(ptr noundef nonnull align 8 dereferenceable(8) %data, ptr noundef %call.i3, ptr noundef nonnull align 1 dereferenceable(1) %ref.tmp)
          to label %.noexc unwind label %lpad

.noexc:                                           ; preds = %call.i.noexc
  invoke void @_ZNSt7__cxx1112basic_stringIcSt11char_traitsIcESaIcEE12_M_constructEmc(ptr noundef nonnull align 8 dereferenceable(32) %data, i64 noundef %conv, i8 noundef signext 0)
          to label %invoke.cont unwind label %lpad.i

lpad.i:                                           ; preds = %.noexc
  %0 = landingpad { ptr, i32 }
          cleanup
  call void @_ZNSaIcED2Ev(ptr noundef nonnull align 1 dereferenceable(1) %data) #28
  br label %lpad.body

invoke.cont:                                      ; preds = %.noexc
  call void @_ZNSaIcED1Ev(ptr noundef nonnull align 1 dereferenceable(1) %ref.tmp) #28
  %call = invoke noundef nonnull align 1 dereferenceable(1) ptr @_ZNSt7__cxx1112basic_stringIcSt11char_traitsIcESaIcEEixEm(ptr noundef nonnull align 8 dereferenceable(32) %data, i64 noundef 0)
          to label %invoke.cont3 unwind label %lpad2

invoke.cont3:                                     ; preds = %invoke.cont
  %call6 = invoke noundef zeroext i1 @_ZN18OpenImageIO_v2_6_010ImageInput6ioreadEPvmm(ptr noundef nonnull align 8 dereferenceable(184) %this, ptr noundef nonnull %call, i64 noundef %conv, i64 noundef 1)
          to label %invoke.cont5 unwind label %lpad2

invoke.cont5:                                     ; preds = %invoke.cont3
  br i1 %call6, label %if.end, label %cleanup

lpad:                                             ; preds = %call.i.noexc, %entry
  %1 = landingpad { ptr, i32 }
          cleanup
  br label %lpad.body

lpad.body:                                        ; preds = %lpad.i, %lpad
  %eh.lpad-body = phi { ptr, i32 } [ %1, %lpad ], [ %0, %lpad.i ]
  call void @_ZNSaIcED1Ev(ptr noundef nonnull align 1 dereferenceable(1) %ref.tmp) #28
  br label %eh.resume

lpad2:                                            ; preds = %if.then12, %lor.lhs.false, %if.end, %invoke.cont3, %invoke.cont
  %2 = landingpad { ptr, i32 }
          cleanup
  call void @_ZNSt7__cxx1112basic_stringIcSt11char_traitsIcESaIcEED1Ev(ptr noundef nonnull align 8 dereferenceable(32) %data) #28
  br label %eh.resume

if.end:                                           ; preds = %invoke.cont5
  %call.i = call noundef ptr @_ZNKSt7__cxx1112basic_stringIcSt11char_traitsIcESaIcEE4dataEv(ptr noundef nonnull align 8 dereferenceable(32) %data) #28
  store ptr %call.i, ptr %agg.tmp, align 8
  %m_len.i = getelementptr inbounds i8, ptr %agg.tmp, i64 8
  %call2.i = call noundef i64 @_ZNKSt7__cxx1112basic_stringIcSt11char_traitsIcESaIcEE4sizeEv(ptr noundef nonnull align 8 dereferenceable(32) %data) #28
  store i64 %call2.i, ptr %m_len.i, align 8
  %m_composite_attribs = getelementptr inbounds i8, ptr %this, i64 248
  %call8 = invoke noundef zeroext i1 @_ZN18OpenImageIO_v2_6_011decode_exifENS_17basic_string_viewIcSt11char_traitsIcEEERNS_9ImageSpecE(ptr noundef nonnull %agg.tmp, ptr noundef nonnull align 8 dereferenceable(160) %m_composite_attribs)
          to label %invoke.cont7 unwind label %lpad2

invoke.cont7:                                     ; preds = %if.end
  br i1 %call8, label %lor.lhs.false, label %if.then12

lor.lhs.false:                                    ; preds = %invoke.cont7
  %call.i4 = call noundef ptr @_ZNKSt7__cxx1112basic_stringIcSt11char_traitsIcESaIcEE4dataEv(ptr noundef nonnull align 8 dereferenceable(32) %data) #28
  store ptr %call.i4, ptr %agg.tmp9, align 8
  %m_len.i5 = getelementptr inbounds i8, ptr %agg.tmp9, i64 8
  %call2.i6 = call noundef i64 @_ZNKSt7__cxx1112basic_stringIcSt11char_traitsIcESaIcEE4sizeEv(ptr noundef nonnull align 8 dereferenceable(32) %data) #28
  store i64 %call2.i6, ptr %m_len.i5, align 8
  %m_common_attribs = getelementptr inbounds i8, ptr %this, i64 408
  %call11 = invoke noundef zeroext i1 @_ZN18OpenImageIO_v2_6_011decode_exifENS_17basic_string_viewIcSt11char_traitsIcEEERNS_9ImageSpecE(ptr noundef nonnull %agg.tmp9, ptr noundef nonnull align 8 dereferenceable(160) %m_common_attribs)
          to label %invoke.cont10 unwind label %lpad2

invoke.cont10:                                    ; preds = %lor.lhs.false
  br i1 %call11, label %cleanup, label %if.then12

if.then12:                                        ; preds = %invoke.cont10, %invoke.cont7
  invoke void @_ZNK18OpenImageIO_v2_6_010ImageInput8errorfmtIJEEEvPKcDpRKT_(ptr noundef nonnull align 8 dereferenceable(184) %this, ptr noundef nonnull @.str.69)
          to label %cleanup unwind label %lpad2

cleanup:                                          ; preds = %invoke.cont10, %if.then12, %invoke.cont5
  %retval.0 = phi i1 [ false, %invoke.cont5 ], [ false, %if.then12 ], [ true, %invoke.cont10 ]
  call void @_ZNSt7__cxx1112basic_stringIcSt11char_traitsIcESaIcEED1Ev(ptr noundef nonnull align 8 dereferenceable(32) %data) #28
  ret i1 %retval.0

eh.resume:                                        ; preds = %lpad2, %lpad.body
  %.pn = phi { ptr, i32 } [ %2, %lpad2 ], [ %eh.lpad-body, %lpad.body ]
  resume { ptr, i32 } %.pn
}